target datalayout = "e-m:e-p270:32:32-p271:32:32-p272:64:64-i64:64-i128:128-f80:128-n8:16:32:64-S128"
target triple = "x86_64-unknown-linux-gnu"

%"struct.node::AssertionInfo" = type { ptr, ptr, ptr }
%"class.node::MaybeStackBuffer.271" = type { i64, i64, ptr, [256 x i16] }

@_ZZN4node4i18n18SetDefaultTimeZoneEPKcE4args = internal constant %"struct.node::AssertionInfo" { ptr @.str.24, ptr @.str.1, ptr @.str.25 }, align 8
@_ZZN4node16MaybeStackBufferIDsLm256EE25AllocateSufficientStorageEmE4args = linkonce_odr dso_local constant %"struct.node::AssertionInfo" { ptr @.str.76, ptr @.str.77, ptr @.str.105 }, comdat, align 8

; Function Attrs: mustprogress nounwind uwtable
define linkonce_odr dso_local noundef i64 @_ZNK4node16MaybeStackBufferIDsLm256EE8capacityEv(ptr noundef nonnull align 8 dereferenceable(536) %this) #4 comdat align 2 {
entry:
  %this.addr = alloca ptr, align 8
  store ptr %this, ptr %this.addr, align 8
  %this1 = load ptr, ptr %this.addr, align 8
  %capacity_ = getelementptr inbounds %"class.node::MaybeStackBuffer.271", ptr %this1, i32 0, i32 1
  %0 = load i64, ptr %capacity_, align 8
  ret i64 %0
}

; Function Attrs: mustprogress nounwind uwtable
define linkonce_odr dso_local noundef zeroext i1 @_ZNK4node16MaybeStackBufferIDsLm256EE13IsInvalidatedEv(ptr noundef nonnull align 8 dereferenceable(536) %this) #4 comdat align 2 {
entry:
  %this.addr = alloca ptr, align 8
  store ptr %this, ptr %this.addr, align 8
  %this1 = load ptr, ptr %this.addr, align 8
  %buf_ = getelementptr inbounds %"class.node::MaybeStackBuffer.271", ptr %this1, i32 0, i32 2
  %0 = load ptr, ptr %buf_, align 8
  %cmp = icmp eq ptr %0, null
  ret i1 %cmp
}

; Function Attrs: mustprogress nounwind uwtable
define linkonce_odr dso_local noundef i64 @_ZN4node9arraysizeIDsLm256EEEmRAT0__KT_(ptr noundef nonnull align 2 dereferenceable(512) %0) #4 comdat {
entry:
  %.addr = alloca ptr, align 8
  store ptr %0, ptr %.addr, align 8
  ret i64 256
}

; Function Attrs: mustprogress nounwind uwtable
define linkonce_odr dso_local noundef zeroext i1 @_ZNK4node16MaybeStackBufferIDsLm256EE11IsAllocatedEv(ptr noundef nonnull align 8 dereferenceable(536) %this) #4 comdat align 2 {
entry:
  %this.addr = alloca ptr, align 8
  store ptr %this, ptr %this.addr, align 8
  %this1 = load ptr, ptr %this.addr, align 8
  %call = call noundef zeroext i1 @_ZNK4node16MaybeStackBufferIDsLm256EE13IsInvalidatedEv(ptr noundef nonnull align 8 dereferenceable(536) %this1)
  br i1 %call, label %land.end, label %land.rhs

land.rhs:                                         ; preds = %entry
  %buf_ = getelementptr inbounds %"class.node::MaybeStackBuffer.271", ptr %this1, i32 0, i32 2
  %0 = load ptr, ptr %buf_, align 8
  %buf_st_ = getelementptr inbounds %"class.node::MaybeStackBuffer.271", ptr %this1, i32 0, i32 3
  %arraydecay = getelementptr inbounds [256 x i16], ptr %buf_st_, i64 0, i64 0
  %cmp = icmp ne ptr %0, %arraydecay
  br label %land.end

land.end:                                         ; preds = %land.rhs, %entry
  %1 = phi i1 [ false, %entry ], [ %cmp, %land.rhs ]
  ret i1 %1
}

; Function Attrs: mustprogress nounwind uwtable
define linkonce_odr dso_local void @_ZN4node16MaybeStackBufferIDsLm256EE25AllocateSufficientStorageEm(ptr noundef nonnull align 8 dereferenceable(536) %this, i64 noundef %storage) #4 comdat align 2 {
entry:
  %this.addr = alloca ptr, align 8
  %storage.addr = alloca i64, align 8
  %was_allocated = alloca i8, align 1
  %allocated_ptr = alloca ptr, align 8
  store ptr %this, ptr %this.addr, align 8
  store i64 %storage, ptr %storage.addr, align 8
  %this1 = load ptr, ptr %this.addr, align 8
  br label %do.body

do.body:                                          ; preds = %entry
  %call = call noundef zeroext i1 @_ZNK4node16MaybeStackBufferIDsLm256EE13IsInvalidatedEv(ptr noundef nonnull align 8 dereferenceable(536) %this1)
  %lnot = xor i1 %call, true
  %lnot2 = xor i1 %lnot, true
  %lnot3 = xor i1 %lnot2, true
  %lnot4 = xor i1 %lnot3, true
  br i1 %lnot4, label %if.then, label %if.end

if.then:                                          ; preds = %do.body
  br label %do.body5

do.body5:                                         ; preds = %if.then
  call void @_ZN4node6AssertERKNS_13AssertionInfoE(ptr noundef nonnull align 8 dereferenceable(24) @_ZZN4node16MaybeStackBufferIDsLm256EE25AllocateSufficientStorageEmE4args)
  call void @abort() #14
  unreachable

do.end:                                           ; No predecessors!
  br label %if.end

if.end:                                           ; preds = %do.end, %do.body
  br label %do.end6

do.end6:                                          ; preds = %if.end
  %0 = load i64, ptr %storage.addr, align 8
  %call7 = call noundef i64 @_ZNK4node16MaybeStackBufferIDsLm256EE8capacityEv(ptr noundef nonnull align 8 dereferenceable(536) %this1)
  %cmp = icmp ugt i64 %0, %call7
  br i1 %cmp, label %if.then8, label %if.end18

if.then8:                                         ; preds = %do.end6
  %call9 = call noundef zeroext i1 @_ZNK4node16MaybeStackBufferIDsLm256EE11IsAllocatedEv(ptr noundef nonnull align 8 dereferenceable(536) %this1)
  %frombool = zext i1 %call9 to i8
  store i8 %frombool, ptr %was_allocated, align 1
  %1 = load i8, ptr %was_allocated, align 1
  %tobool = trunc i8 %1 to i1
  br i1 %tobool, label %cond.true, label %cond.false

cond.true:                                        ; preds = %if.then8
  %buf_ = getelementptr inbounds %"class.node::MaybeStackBuffer.271", ptr %this1, i32 0, i32 2
  %2 = load ptr, ptr %buf_, align 8
  br label %cond.end

cond.false:                                       ; preds = %if.then8
  br label %cond.end

cond.end:                                         ; preds = %cond.false, %cond.true
  %cond = phi ptr [ %2, %cond.true ], [ null, %cond.false ]
  store ptr %cond, ptr %allocated_ptr, align 8
  %3 = load ptr, ptr %allocated_ptr, align 8
  %4 = load i64, ptr %storage.addr, align 8
  %call10 = call noundef ptr @_ZN4node7ReallocIDsEEPT_S2_m(ptr noundef %3, i64 noundef %4)
  %buf_11 = getelementptr inbounds %"class.node::MaybeStackBuffer.271", ptr %this1, i32 0, i32 2
  store ptr %call10, ptr %buf_11, align 8
  %5 = load i64, ptr %storage.addr, align 8
  %capacity_ = getelementptr inbounds %"class.node::MaybeStackBuffer.271", ptr %this1, i32 0, i32 1
  store i64 %5, ptr %capacity_, align 8
  %6 = load i8, ptr %was_allocated, align 1
  %tobool12 = trunc i8 %6 to i1
  br i1 %tobool12, label %if.end17, label %land.lhs.true

land.lhs.true:                                    ; preds = %cond.end
  %length_ = getelementptr inbounds %"class.node::MaybeStackBuffer.271", ptr %this1, i32 0, i32 0
  %7 = load i64, ptr %length_, align 8
  %cmp13 = icmp ugt i64 %7, 0
  br i1 %cmp13, label %if.then14, label %if.end17

if.then14:                                        ; preds = %land.lhs.true
  %buf_15 = getelementptr inbounds %"class.node::MaybeStackBuffer.271", ptr %this1, i32 0, i32 2
  %8 = load ptr, ptr %buf_15, align 8
  %buf_st_ = getelementptr inbounds %"class.node::MaybeStackBuffer.271", ptr %this1, i32 0, i32 3
  %arraydecay = getelementptr inbounds [256 x i16], ptr %buf_st_, i64 0, i64 0
  %length_16 = getelementptr inbounds %"class.node::MaybeStackBuffer.271", ptr %this1, i32 0, i32 0
  %9 = load i64, ptr %length_16, align 8
  %mul = mul i64 %9, 2
  call void @llvm.memcpy.p0.p0.i64(ptr align 2 %8, ptr align 8 %arraydecay, i64 %mul, i1 false)
  br label %if.end17

if.end17:                                         ; preds = %if.then14, %land.lhs.true, %cond.end
  br label %if.end18

if.end18:                                         ; preds = %if.end17, %do.end6
  %10 = load i64, ptr %storage.addr, align 8
  %length_19 = getelementptr inbounds %"class.node::MaybeStackBuffer.271", ptr %this1, i32 0, i32 0
  store i64 %10, ptr %length_19, align 8
  ret void
}

; Function Attrs: mustprogress nounwind uwtable
define linkonce_odr dso_local void @_ZN4node16MaybeStackBufferIDsLm256EEC2Ev(ptr noundef nonnull align 8 dereferenceable(536) %this) unnamed_addr #4 comdat align 2 {
entry:
  %this.addr = alloca ptr, align 8
  store ptr %this, ptr %this.addr, align 8
  %this1 = load ptr, ptr %this.addr, align 8
  %length_ = getelementptr inbounds %"class.node::MaybeStackBuffer.271", ptr %this1, i32 0, i32 0
  store i64 0, ptr %length_, align 8
  %capacity_ = getelementptr inbounds %"class.node::MaybeStackBuffer.271", ptr %this1, i32 0, i32 1
  %buf_st_ = getelementptr inbounds %"class.node::MaybeStackBuffer.271", ptr %this1, i32 0, i32 3
  %call = call noundef i64 @_ZN4node9arraysizeIDsLm256EEEmRAT0__KT_(ptr noundef nonnull align 2 dereferenceable(512) %buf_st_)
  store i64 %call, ptr %capacity_, align 8
  %buf_ = getelementptr inbounds %"class.node::MaybeStackBuffer.271", ptr %this1, i32 0, i32 2
  %buf_st_2 = getelementptr inbounds %"class.node::MaybeStackBuffer.271", ptr %this1, i32 0, i32 3
  %arraydecay = getelementptr inbounds [256 x i16], ptr %buf_st_2, i64 0, i64 0
  store ptr %arraydecay, ptr %buf_, align 8
  %buf_3 = getelementptr inbounds %"class.node::MaybeStackBuffer.271", ptr %this1, i32 0, i32 2
  %0 = load ptr, ptr %buf_3, align 8
  %arrayidx = getelementptr inbounds i16, ptr %0, i64 0
  store i16 0, ptr %arrayidx, align 2
  ret void
}

; Function Attrs: mustprogress nounwind uwtable
define linkonce_odr dso_local void @_ZN4node16MaybeStackBufferIDsLm256EED2Ev(ptr noundef nonnull align 8 dereferenceable(536) %this) unnamed_addr #4 comdat align 2 {
entry:
  %this.addr = alloca ptr, align 8
  store ptr %this, ptr %this.addr, align 8
  %this1 = load ptr, ptr %this.addr, align 8
  %call = call noundef zeroext i1 @_ZNK4node16MaybeStackBufferIDsLm256EE11IsAllocatedEv(ptr noundef nonnull align 8 dereferenceable(536) %this1)
  br i1 %call, label %if.then, label %if.end

if.then:                                          ; preds = %entry
  %buf_ = getelementptr inbounds %"class.node::MaybeStackBuffer.271", ptr %this1, i32 0, i32 2
  %0 = load ptr, ptr %buf_, align 8
  call void @free(ptr noundef %0) #3
  br label %if.end

if.end:                                           ; preds = %if.then, %entry
  ret void
}

; Function Attrs: mustprogress nounwind uwtable
define internal noundef signext i8 @_ZL9U_SUCCESS10UErrorCode(i32 noundef %code) #4 {
entry:
  %code.addr = alloca i32, align 4
  store i32 %code, ptr %code.addr, align 4
  %0 = load i32, ptr %code.addr, align 4
  %cmp = icmp sle i32 %0, 0
  %conv = zext i1 %cmp to i8
  ret i8 %conv
}

; Function Attrs: mustprogress nounwind uwtable
define linkonce_odr dso_local noundef ptr @_ZN4node16MaybeStackBufferIDsLm256EE3outEv(ptr noundef nonnull align 8 dereferenceable(536) %this) #4 comdat align 2 {
entry:
  %this.addr = alloca ptr, align 8
  store ptr %this, ptr %this.addr, align 8
  %this1 = load ptr, ptr %this.addr, align 8
  %buf_ = getelementptr inbounds %"class.node::MaybeStackBuffer.271", ptr %this1, i32 0, i32 2
  %0 = load ptr, ptr %buf_, align 8
  ret ptr %0
}

; Function Attrs: mustprogress nounwind uwtable
define linkonce_odr dso_local void @_ZN4node16MaybeStackBufferIDsLm256EEC2Em(ptr noundef nonnull align 8 dereferenceable(536) %this, i64 noundef %storage) unnamed_addr #4 comdat align 2 {
entry:
  %this.addr = alloca ptr, align 8
  %storage.addr = alloca i64, align 8
  store ptr %this, ptr %this.addr, align 8
  store i64 %storage, ptr %storage.addr, align 8
  %this1 = load ptr, ptr %this.addr, align 8
  call void @_ZN4node16MaybeStackBufferIDsLm256EEC2Ev(ptr noundef nonnull align 8 dereferenceable(536) %this1)
  %0 = load i64, ptr %storage.addr, align 8
  call void @_ZN4node16MaybeStackBufferIDsLm256EE25AllocateSufficientStorageEm(ptr noundef nonnull align 8 dereferenceable(536) %this1, i64 noundef %0)
  ret void
}

; Function Attrs: mustprogress nounwind uwtable
define dso_local void @_ZN4node4i18n18SetDefaultTimeZoneEPKc(ptr noundef %tzid) #4 {
entry:
  %tzid.addr = alloca ptr, align 8
  %tzidlen = alloca i64, align 8
  %status = alloca i32, align 4
  %id = alloca %"class.node::MaybeStackBuffer.271", align 8
  store ptr %tzid, ptr %tzid.addr, align 8
  %0 = load ptr, ptr %tzid.addr, align 8
  %call = call i64 @strlen(ptr noundef %0) #15
  %add = add i64 %call, 1
  store i64 %add, ptr %tzidlen, align 8
  store i32 0, ptr %status, align 4
  %1 = load i64, ptr %tzidlen, align 8
  call void @_ZN4node16MaybeStackBufferIDsLm256EEC2Em(ptr noundef nonnull align 8 dereferenceable(536) %id, i64 noundef %1)
  %2 = load ptr, ptr %tzid.addr, align 8
  %call1 = call noundef ptr @_ZN4node16MaybeStackBufferIDsLm256EE3outEv(ptr noundef nonnull align 8 dereferenceable(536) %id)
  %3 = load i64, ptr %tzidlen, align 8
  %conv = trunc i64 %3 to i32
  call void @u_charsToUChars_74(ptr noundef %2, ptr noundef %call1, i32 noundef %conv)
  %call2 = call noundef ptr @_ZN4node16MaybeStackBufferIDsLm256EE3outEv(ptr noundef nonnull align 8 dereferenceable(536) %id)
  call void @ucal_setDefaultTimeZone_74(ptr noundef %call2, ptr noundef %status)
  br label %do.body

do.body:                                          ; preds = %entry
  %4 = load i32, ptr %status, align 4
  %call3 = call noundef signext i8 @_ZL9U_SUCCESS10UErrorCode(i32 noundef %4)
  %tobool = icmp ne i8 %call3, 0
  %lnot = xor i1 %tobool, true
  %lnot4 = xor i1 %lnot, true
  %lnot5 = xor i1 %lnot4, true
  br i1 %lnot5, label %if.then, label %if.end

if.then:                                          ; preds = %do.body
  br label %do.body7

do.body7:                                         ; preds = %if.then
  call void @_ZN4node6AssertERKNS_13AssertionInfoE(ptr noundef nonnull align 8 dereferenceable(24) @_ZZN4node4i18n18SetDefaultTimeZoneEPKcE4args)
  call void @abort() #14
  unreachable

do.cond:                                          ; No predecessors!
  br label %do.end

do.end:                                           ; preds = %do.cond
  br label %if.end

if.end:                                           ; preds = %do.end, %do.body
  br label %do.cond8

do.cond8:                                         ; preds = %if.end
  br label %do.end9

do.end9:                                          ; preds = %do.cond8
  call void @_ZN4node16MaybeStackBufferIDsLm256EED2Ev(ptr noundef nonnull align 8 dereferenceable(536) %id) #3
  ret void
}