; Function Attrs: mustprogress nounwind uwtable
define dso_local void @_ZN4node4i18n18SetDefaultTimeZoneEPKc(ptr noundef %tzid) local_unnamed_addr #3 {
entry:
  %status = alloca i32, align 4
  %id = alloca %"class.node::MaybeStackBuffer.271", align 8
  %call = tail call i64 @strlen(ptr noundef nonnull dereferenceable(1) %tzid) #23
  %add = add i64 %call, 1
  store i32 0, ptr %status, align 4
  store i64 0, ptr %id, align 8
  %capacity_.i.i = getelementptr inbounds i8, ptr %id, i64 8
  %buf_st_.i.i = getelementptr inbounds i8, ptr %id, i64 24
  store i64 256, ptr %capacity_.i.i, align 8
  %buf_.i.i = getelementptr inbounds i8, ptr %id, i64 16
  store ptr %buf_st_.i.i, ptr %buf_.i.i, align 8
  store i16 0, ptr %buf_st_.i.i, align 8
  %cmp.i.i = icmp ugt i64 %add, 256
  br i1 %cmp.i.i, label %land.lhs.true.i.i, label %_ZN4node16MaybeStackBufferIDsLm256EEC2Em.exit

land.lhs.true.i.i:                                ; preds = %entry
  %call10.i.i = call noundef ptr @_ZN4node7ReallocIDsEEPT_S2_m(ptr noundef null, i64 noundef %add)
  store ptr %call10.i.i, ptr %buf_.i.i, align 8
  store i64 %add, ptr %capacity_.i.i, align 8
  %0 = load i64, ptr %id, align 8
  %cmp13.not.i.i = icmp eq i64 %0, 0
  br i1 %cmp13.not.i.i, label %_ZN4node16MaybeStackBufferIDsLm256EEC2Em.exit, label %if.then14.i.i

if.then14.i.i:                                    ; preds = %land.lhs.true.i.i
  %mul.i.i = shl i64 %0, 1
  call void @llvm.memcpy.p0.p0.i64(ptr align 2 %call10.i.i, ptr nonnull align 8 %buf_st_.i.i, i64 %mul.i.i, i1 false)
  %.pre = load ptr, ptr %buf_.i.i, align 8
  br label %_ZN4node16MaybeStackBufferIDsLm256EEC2Em.exit

_ZN4node16MaybeStackBufferIDsLm256EEC2Em.exit:    ; preds = %entry, %land.lhs.true.i.i, %if.then14.i.i
  %1 = phi ptr [ %buf_st_.i.i, %entry ], [ %call10.i.i, %land.lhs.true.i.i ], [ %.pre, %if.then14.i.i ]
  store i64 %add, ptr %id, align 8
  %conv = trunc i64 %add to i32
  call void @u_charsToUChars_74(ptr noundef %tzid, ptr noundef %1, i32 noundef %conv) #21
  %2 = load ptr, ptr %buf_.i.i, align 8
  call void @ucal_setDefaultTimeZone_74(ptr noundef %2, ptr noundef nonnull %status) #21
  %3 = load i32, ptr %status, align 4
  %cmp.i = icmp sgt i32 %3, 0
  br i1 %cmp.i, label %do.body7, label %do.end9

do.body7:                                         ; preds = %_ZN4node16MaybeStackBufferIDsLm256EEC2Em.exit
  call void @_ZN4node6AssertERKNS_13AssertionInfoE(ptr noundef nonnull align 8 dereferenceable(24) @_ZZN4node4i18n18SetDefaultTimeZoneEPKcE4args) #21
  call void @abort() #22
  unreachable

do.end9:                                          ; preds = %_ZN4node16MaybeStackBufferIDsLm256EEC2Em.exit
  %4 = load ptr, ptr %buf_.i.i, align 8
  %cmp.i.i.i = icmp ne ptr %4, null
  %cmp.i.i5 = icmp ne ptr %4, %buf_st_.i.i
  %5 = and i1 %cmp.i.i.i, %cmp.i.i5
  br i1 %5, label %if.then.i, label %_ZN4node16MaybeStackBufferIDsLm256EED2Ev.exit

if.then.i:                                        ; preds = %do.end9
  call void @free(ptr noundef nonnull %4) #21
  br label %_ZN4node16MaybeStackBufferIDsLm256EED2Ev.exit

_ZN4node16MaybeStackBufferIDsLm256EED2Ev.exit:    ; preds = %do.end9, %if.then.i
  ret void
}